; Function Attrs: nounwind uwtable
define nonnull ptr @l_Lean_Compiler_LCNF_CodeDecl_dependsOn___boxed(ptr noundef %0, ptr noundef %1) local_unnamed_addr #0 {
  %3 = ptrtoint ptr %0 to i64
  %4 = and i64 %3, 1
  %.not.i.i = icmp eq i64 %4, 0
  br i1 %.not.i.i, label %8, label %5

5:                                                ; preds = %2
  %6 = lshr i64 %3, 1
  %7 = trunc i64 %6 to i32
  br label %lean_obj_tag.exit.i

8:                                                ; preds = %2
  %9 = getelementptr i8, ptr %0, i64 4
  %.val.i.i = load i32, ptr %9, align 4
  %10 = lshr i32 %.val.i.i, 24
  br label %lean_obj_tag.exit.i

lean_obj_tag.exit.i:                              ; preds = %8, %5
  %.0.i.i = phi i32 [ %7, %5 ], [ %10, %8 ]
  %11 = icmp eq i32 %.0.i.i, 0
  %12 = getelementptr inbounds nuw i8, ptr %0, i64 8
  %13 = load ptr, ptr %12, align 8, !tbaa !10
  br i1 %11, label %14, label %23

14:                                               ; preds = %lean_obj_tag.exit.i
  %15 = getelementptr inbounds nuw i8, ptr %13, i64 24
  %16 = load ptr, ptr %15, align 8, !tbaa !10
  %17 = tail call zeroext i8 @l_Lean_Expr_hasAnyFVar_visit___at___private_Lean_Compiler_LCNF_DependsOn_0__Lean_Compiler_LCNF_typeDepOn___spec__1(ptr noundef %1, ptr noundef %16)
  %18 = icmp eq i8 %17, 0
  br i1 %18, label %19, label %l_Lean_Compiler_LCNF_CodeDecl_dependsOn.exit

19:                                               ; preds = %14
  %20 = getelementptr inbounds nuw i8, ptr %13, i64 32
  %21 = load ptr, ptr %20, align 8, !tbaa !10
  %22 = tail call zeroext i8 @l___private_Lean_Compiler_LCNF_DependsOn_0__Lean_Compiler_LCNF_letValueDepOn(ptr noundef %21, ptr noundef %1)
  br label %l_Lean_Compiler_LCNF_CodeDecl_dependsOn.exit

23:                                               ; preds = %lean_obj_tag.exit.i
  %24 = getelementptr inbounds nuw i8, ptr %13, i64 32
  %25 = load ptr, ptr %24, align 8, !tbaa !10
  %26 = tail call zeroext i8 @l_Lean_Expr_hasAnyFVar_visit___at___private_Lean_Compiler_LCNF_DependsOn_0__Lean_Compiler_LCNF_typeDepOn___spec__1(ptr noundef %1, ptr noundef %25)
  %27 = icmp eq i8 %26, 0
  br i1 %27, label %28, label %l_Lean_Compiler_LCNF_CodeDecl_dependsOn.exit

28:                                               ; preds = %23
  %29 = getelementptr inbounds nuw i8, ptr %13, i64 40
  %30 = load ptr, ptr %29, align 8, !tbaa !10
  %31 = tail call zeroext i8 @l___private_Lean_Compiler_LCNF_DependsOn_0__Lean_Compiler_LCNF_depOn(ptr noundef %30, ptr noundef %1)
  br label %l_Lean_Compiler_LCNF_CodeDecl_dependsOn.exit

l_Lean_Compiler_LCNF_CodeDecl_dependsOn.exit:     ; preds = %14, %19, %23, %28
  %.0.i = phi i8 [ %31, %28 ], [ 1, %23 ], [ %22, %19 ], [ 1, %14 ]
  %32 = ptrtoint ptr %1 to i64
  %33 = and i64 %32, 1
  %.not = icmp eq i64 %33, 0
  br i1 %.not, label %34, label %lean_dec.exit5

34:                                               ; preds = %l_Lean_Compiler_LCNF_CodeDecl_dependsOn.exit
  %35 = load i32, ptr %1, align 4, !tbaa !4
  %36 = icmp sgt i32 %35, 1
  br i1 %36, label %37, label %39, !prof !9

37:                                               ; preds = %34
  %38 = add nsw i32 %35, -1
  store i32 %38, ptr %1, align 4, !tbaa !4
  br label %lean_dec.exit5

39:                                               ; preds = %34
  %.not.i = icmp eq i32 %35, 0
  br i1 %.not.i, label %lean_dec.exit5, label %40

40:                                               ; preds = %39
  tail call void @lean_dec_ref_cold(ptr noundef nonnull %1) #3
  br label %lean_dec.exit5

lean_dec.exit5:                                   ; preds = %40, %39, %37, %l_Lean_Compiler_LCNF_CodeDecl_dependsOn.exit
  br i1 %.not.i.i, label %41, label %lean_dec.exit

41:                                               ; preds = %lean_dec.exit5
  %42 = load i32, ptr %0, align 4, !tbaa !4
  %43 = icmp sgt i32 %42, 1
  br i1 %43, label %44, label %46, !prof !9

44:                                               ; preds = %41
  %45 = add nsw i32 %42, -1
  store i32 %45, ptr %0, align 4, !tbaa !4
  br label %lean_dec.exit

46:                                               ; preds = %41
  %.not.i6 = icmp eq i32 %42, 0
  br i1 %.not.i6, label %lean_dec.exit, label %47

47:                                               ; preds = %46
  tail call void @lean_dec_ref_cold(ptr noundef nonnull %0) #3
  br label %lean_dec.exit

lean_dec.exit:                                    ; preds = %47, %46, %44, %lean_dec.exit5
  %48 = zext i8 %.0.i to i64
  %49 = shl nuw nsw i64 %48, 1
  %50 = or disjoint i64 %49, 1
  %51 = inttoptr i64 %50 to ptr
  ret ptr %51
}